; Function Attrs: mustprogress nounwind uwtable
define dso_local range(i32 0, 65536) i32 @LLVMGetDebugLocColumn(ptr noundef %0) local_unnamed_addr #0 {
  %2 = load i8, ptr %0, align 8
  %3 = icmp ult i8 %2, 29
  br i1 %3, label %12, label %4

4:                                                ; preds = %1
  %5 = getelementptr inbounds nuw i8, ptr %0, i64 48
  %6 = load ptr, ptr %5, align 8
  %.not = icmp eq ptr %6, null
  br i1 %.not, label %12, label %7

7:                                                ; preds = %4
  %8 = tail call noundef ptr @_ZNK4llvm8DebugLoc3getEv(ptr noundef nonnull align 8 dereferenceable(8) %5) #35
  %9 = getelementptr inbounds nuw i8, ptr %8, i64 2
  %10 = load i16, ptr %9, align 2
  %11 = zext i16 %10 to i32
  br label %12

12:                                               ; preds = %4, %7, %1
  %.0 = phi i32 [ %11, %7 ], [ 0, %4 ], [ 0, %1 ]
  ret i32 %.0
}